; Function Attrs: mustprogress noreturn uwtable
define void @_ZN5faiss17IndexSplitVectors3addElPKf(ptr nocapture nonnull readnone align 8 %0, i64 %1, ptr nocapture readnone %2) unnamed_addr #1 align 2 personality ptr @__gxx_personality_v0 {
  %4 = alloca %"class.std::__cxx11::basic_string", align 8
  %5 = alloca %"class.std::allocator.0", align 1
  %6 = tail call ptr @__cxa_allocate_exception(i64 40) #16
  call void @_ZNSaIcEC1Ev(ptr noundef nonnull align 1 dereferenceable(1) %5) #16
  %7 = invoke noundef ptr @_ZNSt7__cxx1112basic_stringIcSt11char_traitsIcESaIcEE13_M_local_dataEv(ptr noundef nonnull align 8 dereferenceable(32) %4)
          to label %.noexc unwind label %11

.noexc:                                           ; preds = %3
  invoke void @_ZNSt7__cxx1112basic_stringIcSt11char_traitsIcESaIcEE12_Alloc_hiderC1EPcRKS3_(ptr noundef nonnull align 8 dereferenceable(8) %4, ptr noundef %7, ptr noundef nonnull align 1 dereferenceable(1) %5)
          to label %.noexc5 unwind label %11

.noexc5:                                          ; preds = %.noexc
  invoke void @_ZNSt7__cxx1112basic_stringIcSt11char_traitsIcESaIcEE12_M_constructIPKcEEvT_S8_St20forward_iterator_tag(ptr noundef nonnull align 8 dereferenceable(32) %4, ptr noundef nonnull @.str.5, ptr noundef nonnull getelementptr inbounds ([16 x i8], ptr @.str.5, i64 0, i64 15))
          to label %_ZNSt7__cxx1112basic_stringIcSt11char_traitsIcESaIcEEC2IS3_EEPKcRKS3_.exit unwind label %8

8:                                                ; preds = %.noexc5
  %9 = landingpad { ptr, i32 }
          cleanup
  call void @_ZNSaIcED2Ev(ptr noundef nonnull align 1 dereferenceable(1) %4) #16
  br label %.body.thread

_ZNSt7__cxx1112basic_stringIcSt11char_traitsIcESaIcEEC2IS3_EEPKcRKS3_.exit: ; preds = %.noexc5
  invoke void @_ZN5faiss14FaissExceptionC1ERKNSt7__cxx1112basic_stringIcSt11char_traitsIcESaIcEEEPKcSA_i(ptr noundef nonnull align 8 dereferenceable(40) %6, ptr noundef nonnull align 8 dereferenceable(32) %4, ptr noundef nonnull @__PRETTY_FUNCTION__._ZN5faiss17IndexSplitVectors3addElPKf, ptr noundef nonnull @.str.3, i32 noundef 56)
          to label %10 unwind label %.body

10:                                               ; preds = %_ZNSt7__cxx1112basic_stringIcSt11char_traitsIcESaIcEEC2IS3_EEPKcRKS3_.exit
  invoke void @__cxa_throw(ptr nonnull %6, ptr nonnull @_ZTIN5faiss14FaissExceptionE, ptr nonnull @_ZN5faiss14FaissExceptionD2Ev) #21
          to label %16 unwind label %.body

11:                                               ; preds = %.noexc, %3
  %12 = landingpad { ptr, i32 }
          cleanup
  br label %.body.thread

.body.thread:                                     ; preds = %8, %11
  %.pn.ph = phi { ptr, i32 } [ %9, %8 ], [ %12, %11 ]
  call void @_ZNSaIcED1Ev(ptr noundef nonnull align 1 dereferenceable(1) %5) #16
  br label %14

.body:                                            ; preds = %_ZNSt7__cxx1112basic_stringIcSt11char_traitsIcESaIcEEC2IS3_EEPKcRKS3_.exit, %10
  %.0 = phi i1 [ false, %10 ], [ true, %_ZNSt7__cxx1112basic_stringIcSt11char_traitsIcESaIcEEC2IS3_EEPKcRKS3_.exit ]
  %13 = landingpad { ptr, i32 }
          cleanup
  call void @_ZNSt7__cxx1112basic_stringIcSt11char_traitsIcESaIcEED1Ev(ptr noundef nonnull align 8 dereferenceable(32) %4) #16
  call void @_ZNSaIcED1Ev(ptr noundef nonnull align 1 dereferenceable(1) %5) #16
  br i1 %.0, label %14, label %15

14:                                               ; preds = %.body.thread, %.body
  %.pn9 = phi { ptr, i32 } [ %.pn.ph, %.body.thread ], [ %13, %.body ]
  call void @__cxa_free_exception(ptr %6) #16
  br label %15

15:                                               ; preds = %.body, %14
  %.pn8 = phi { ptr, i32 } [ %13, %.body ], [ %.pn9, %14 ]
  resume { ptr, i32 } %.pn8

16:                                               ; preds = %10
  unreachable
}